target datalayout = "e-m:e-p270:32:32-p271:32:32-p272:64:64-i64:64-i128:128-f80:128-n8:16:32:64-S128"
target triple = "x86_64-pc-linux-gnu"

%"class.gmx::ISignaller" = type { ptr }
%"class.std::vector" = type { %"struct.std::_Vector_base" }
%"struct.std::_Vector_base" = type { %"struct.std::_Vector_base<std::function<void (long, double)>, std::allocator<std::function<void (long, double)>>>::_Vector_impl" }
%"struct.std::_Vector_base<std::function<void (long, double)>, std::allocator<std::function<void (long, double)>>>::_Vector_impl" = type { %"struct.std::_Vector_base<std::function<void (long, double)>, std::allocator<std::function<void (long, double)>>>::_Vector_impl_data" }
%"struct.std::_Vector_base<std::function<void (long, double)>, std::allocator<std::function<void (long, double)>>>::_Vector_impl_data" = type { ptr, ptr, ptr }
%"class.gmx::ILastStepSignallerClient" = type { ptr }
%"class.gmx::TrajectorySignaller" = type <{ %"class.gmx::ISignaller", %"class.gmx::ILastStepSignallerClient", i32, i32, i32, i32, i32, i32, i32, i32, i32, [4 x i8], %"class.std::vector", %"class.std::vector", i64, i8, [7 x i8] }>

@_ZTVN3gmx10ISignallerE = linkonce_odr unnamed_addr constant { [6 x ptr] } { [6 x ptr] [ptr null, ptr @_ZTIN3gmx10ISignallerE, ptr @__cxa_pure_virtual, ptr @__cxa_pure_virtual, ptr @_ZN3gmx10ISignallerD2Ev, ptr @_ZN3gmx10ISignallerD0Ev] }, comdat, align 8
@_ZTVN3gmx24ILastStepSignallerClientE = linkonce_odr unnamed_addr constant { [5 x ptr] } { [5 x ptr] [ptr null, ptr @_ZTIN3gmx24ILastStepSignallerClientE, ptr @_ZN3gmx24ILastStepSignallerClientD2Ev, ptr @_ZN3gmx24ILastStepSignallerClientD0Ev, ptr @__cxa_pure_virtual] }, comdat, align 8

; Function Attrs: mustprogress nounwind uwtable
define linkonce_odr void @_ZNSt15__new_allocatorISt8functionIFvldEEEC2ERKS3_(ptr noundef nonnull align 1 dereferenceable(1) %0, ptr noundef nonnull align 1 dereferenceable(1) %1) unnamed_addr #1 comdat align 2 {
  %3 = alloca ptr, align 8
  %4 = alloca ptr, align 8
  store ptr %0, ptr %3, align 8
  store ptr %1, ptr %4, align 8
  ret void
}

; Function Attrs: mustprogress nounwind uwtable
define linkonce_odr void @_ZNSt12_Vector_baseISt8functionIFvldEESaIS2_EE17_Vector_impl_dataC2EOS5_(ptr noundef nonnull align 8 dereferenceable(24) %0, ptr noundef nonnull align 8 dereferenceable(24) %1) unnamed_addr #1 comdat align 2 {
  %3 = alloca ptr, align 8
  %4 = alloca ptr, align 8
  store ptr %0, ptr %3, align 8
  store ptr %1, ptr %4, align 8
  %5 = load ptr, ptr %3, align 8
  %6 = getelementptr inbounds %"struct.std::_Vector_base<std::function<void (long, double)>, std::allocator<std::function<void (long, double)>>>::_Vector_impl_data", ptr %5, i32 0, i32 0
  %7 = load ptr, ptr %4, align 8
  %8 = getelementptr inbounds %"struct.std::_Vector_base<std::function<void (long, double)>, std::allocator<std::function<void (long, double)>>>::_Vector_impl_data", ptr %7, i32 0, i32 0
  %9 = load ptr, ptr %8, align 8
  store ptr %9, ptr %6, align 8
  %10 = getelementptr inbounds %"struct.std::_Vector_base<std::function<void (long, double)>, std::allocator<std::function<void (long, double)>>>::_Vector_impl_data", ptr %5, i32 0, i32 1
  %11 = load ptr, ptr %4, align 8
  %12 = getelementptr inbounds %"struct.std::_Vector_base<std::function<void (long, double)>, std::allocator<std::function<void (long, double)>>>::_Vector_impl_data", ptr %11, i32 0, i32 1
  %13 = load ptr, ptr %12, align 8
  store ptr %13, ptr %10, align 8
  %14 = getelementptr inbounds %"struct.std::_Vector_base<std::function<void (long, double)>, std::allocator<std::function<void (long, double)>>>::_Vector_impl_data", ptr %5, i32 0, i32 2
  %15 = load ptr, ptr %4, align 8
  %16 = getelementptr inbounds %"struct.std::_Vector_base<std::function<void (long, double)>, std::allocator<std::function<void (long, double)>>>::_Vector_impl_data", ptr %15, i32 0, i32 2
  %17 = load ptr, ptr %16, align 8
  store ptr %17, ptr %14, align 8
  %18 = load ptr, ptr %4, align 8
  %19 = getelementptr inbounds %"struct.std::_Vector_base<std::function<void (long, double)>, std::allocator<std::function<void (long, double)>>>::_Vector_impl_data", ptr %18, i32 0, i32 2
  store ptr null, ptr %19, align 8
  %20 = load ptr, ptr %4, align 8
  %21 = getelementptr inbounds %"struct.std::_Vector_base<std::function<void (long, double)>, std::allocator<std::function<void (long, double)>>>::_Vector_impl_data", ptr %20, i32 0, i32 1
  store ptr null, ptr %21, align 8
  %22 = load ptr, ptr %4, align 8
  %23 = getelementptr inbounds %"struct.std::_Vector_base<std::function<void (long, double)>, std::allocator<std::function<void (long, double)>>>::_Vector_impl_data", ptr %22, i32 0, i32 0
  store ptr null, ptr %23, align 8
  ret void
}

; Function Attrs: mustprogress nounwind uwtable
define linkonce_odr void @_ZNSaISt8functionIFvldEEEC2ERKS2_(ptr noundef nonnull align 1 dereferenceable(1) %0, ptr noundef nonnull align 1 dereferenceable(1) %1) unnamed_addr #1 comdat align 2 {
  %3 = alloca ptr, align 8
  %4 = alloca ptr, align 8
  store ptr %0, ptr %3, align 8
  store ptr %1, ptr %4, align 8
  %5 = load ptr, ptr %3, align 8
  %6 = load ptr, ptr %4, align 8
  call void @_ZNSt15__new_allocatorISt8functionIFvldEEEC2ERKS3_(ptr noundef nonnull align 1 dereferenceable(1) %5, ptr noundef nonnull align 1 dereferenceable(1) %6) #10
  ret void
}

; Function Attrs: mustprogress nounwind uwtable
define linkonce_odr void @_ZNSt12_Vector_baseISt8functionIFvldEESaIS2_EE12_Vector_implC2EOS5_(ptr noundef nonnull align 8 dereferenceable(24) %0, ptr noundef nonnull align 8 dereferenceable(24) %1) unnamed_addr #1 comdat align 2 {
  %3 = alloca ptr, align 8
  %4 = alloca ptr, align 8
  store ptr %0, ptr %3, align 8
  store ptr %1, ptr %4, align 8
  %5 = load ptr, ptr %3, align 8
  %6 = load ptr, ptr %4, align 8
  call void @_ZNSaISt8functionIFvldEEEC2ERKS2_(ptr noundef nonnull align 1 dereferenceable(1) %5, ptr noundef nonnull align 1 dereferenceable(1) %6) #10
  %7 = load ptr, ptr %4, align 8
  call void @_ZNSt12_Vector_baseISt8functionIFvldEESaIS2_EE17_Vector_impl_dataC2EOS5_(ptr noundef nonnull align 8 dereferenceable(24) %5, ptr noundef nonnull align 8 dereferenceable(24) %7) #10
  ret void
}

; Function Attrs: mustprogress nounwind uwtable
define linkonce_odr void @_ZNSt12_Vector_baseISt8functionIFvldEESaIS2_EEC2EOS4_(ptr noundef nonnull align 8 dereferenceable(24) %0, ptr noundef nonnull align 8 dereferenceable(24) %1) unnamed_addr #1 comdat align 2 {
  %3 = alloca ptr, align 8
  %4 = alloca ptr, align 8
  store ptr %0, ptr %3, align 8
  store ptr %1, ptr %4, align 8
  %5 = load ptr, ptr %3, align 8
  %6 = getelementptr inbounds %"struct.std::_Vector_base", ptr %5, i32 0, i32 0
  %7 = load ptr, ptr %4, align 8
  %8 = getelementptr inbounds %"struct.std::_Vector_base", ptr %7, i32 0, i32 0
  call void @_ZNSt12_Vector_baseISt8functionIFvldEESaIS2_EE12_Vector_implC2EOS5_(ptr noundef nonnull align 8 dereferenceable(24) %6, ptr noundef nonnull align 8 dereferenceable(24) %8) #10
  ret void
}

; Function Attrs: mustprogress nounwind uwtable
define linkonce_odr void @_ZNSt6vectorISt8functionIFvldEESaIS2_EEC2EOS4_(ptr noundef nonnull align 8 dereferenceable(24) %0, ptr noundef nonnull align 8 dereferenceable(24) %1) unnamed_addr #1 comdat align 2 {
  %3 = alloca ptr, align 8
  %4 = alloca ptr, align 8
  store ptr %0, ptr %3, align 8
  store ptr %1, ptr %4, align 8
  %5 = load ptr, ptr %3, align 8
  %6 = load ptr, ptr %4, align 8
  call void @_ZNSt12_Vector_baseISt8functionIFvldEESaIS2_EEC2EOS4_(ptr noundef nonnull align 8 dereferenceable(24) %5, ptr noundef nonnull align 8 dereferenceable(24) %6) #10
  ret void
}

; Function Attrs: mustprogress nounwind uwtable
define linkonce_odr void @_ZN3gmx24ILastStepSignallerClientC2Ev(ptr noundef nonnull align 8 dereferenceable(8) %0) unnamed_addr #1 comdat align 2 {
  %2 = alloca ptr, align 8
  store ptr %0, ptr %2, align 8
  %3 = load ptr, ptr %2, align 8
  store ptr getelementptr inbounds inrange(-16, 24) ({ [5 x ptr] }, ptr @_ZTVN3gmx24ILastStepSignallerClientE, i32 0, i32 0, i32 2), ptr %3, align 8
  ret void
}

; Function Attrs: mustprogress nounwind uwtable
define linkonce_odr void @_ZN3gmx10ISignallerC2Ev(ptr noundef nonnull align 8 dereferenceable(8) %0) unnamed_addr #1 comdat align 2 {
  %2 = alloca ptr, align 8
  store ptr %0, ptr %2, align 8
  %3 = load ptr, ptr %2, align 8
  store ptr getelementptr inbounds inrange(-16, 32) ({ [6 x ptr] }, ptr @_ZTVN3gmx10ISignallerE, i32 0, i32 0, i32 2), ptr %3, align 8
  ret void
}

; Function Attrs: mustprogress nounwind uwtable
define void @_ZN3gmx19TrajectorySignallerC2ESt6vectorISt8functionIFvldEESaIS4_EES6_iiiiiiiii(ptr noundef nonnull align 8 dereferenceable(120) %0, ptr noundef %1, ptr noundef %2, i32 noundef %3, i32 noundef %4, i32 noundef %5, i32 noundef %6, i32 noundef %7, i32 noundef %8, i32 noundef %9, i32 noundef %10, i32 noundef %11) unnamed_addr #1 align 2 {
  %13 = alloca ptr, align 8
  %14 = alloca ptr, align 8
  %15 = alloca ptr, align 8
  %16 = alloca i32, align 4
  %17 = alloca i32, align 4
  %18 = alloca i32, align 4
  %19 = alloca i32, align 4
  %20 = alloca i32, align 4
  %21 = alloca i32, align 4
  %22 = alloca i32, align 4
  %23 = alloca i32, align 4
  %24 = alloca i32, align 4
  store ptr %0, ptr %13, align 8
  store ptr %1, ptr %14, align 8
  store ptr %2, ptr %15, align 8
  store i32 %3, ptr %16, align 4
  store i32 %4, ptr %17, align 4
  store i32 %5, ptr %18, align 4
  store i32 %6, ptr %19, align 4
  store i32 %7, ptr %20, align 4
  store i32 %8, ptr %21, align 4
  store i32 %9, ptr %22, align 4
  store i32 %10, ptr %23, align 4
  store i32 %11, ptr %24, align 4
  %25 = load ptr, ptr %13, align 8
  call void @_ZN3gmx10ISignallerC2Ev(ptr noundef nonnull align 8 dereferenceable(8) %25) #10
  %26 = getelementptr inbounds i8, ptr %25, i64 8
  call void @_ZN3gmx24ILastStepSignallerClientC2Ev(ptr noundef nonnull align 8 dereferenceable(8) %26) #10
  store ptr getelementptr inbounds inrange(-16, 40) ({ [7 x ptr], [5 x ptr] }, ptr @_ZTVN3gmx19TrajectorySignallerE, i32 0, i32 0, i32 2), ptr %25, align 8
  %27 = getelementptr inbounds i8, ptr %25, i64 8
  store ptr getelementptr inbounds inrange(-16, 24) ({ [7 x ptr], [5 x ptr] }, ptr @_ZTVN3gmx19TrajectorySignallerE, i32 0, i32 1, i32 2), ptr %27, align 8
  %28 = getelementptr inbounds %"class.gmx::TrajectorySignaller", ptr %25, i32 0, i32 2
  %29 = load i32, ptr %16, align 4
  store i32 %29, ptr %28, align 8
  %30 = getelementptr inbounds %"class.gmx::TrajectorySignaller", ptr %25, i32 0, i32 3
  %31 = load i32, ptr %17, align 4
  store i32 %31, ptr %30, align 4
  %32 = getelementptr inbounds %"class.gmx::TrajectorySignaller", ptr %25, i32 0, i32 4
  %33 = load i32, ptr %18, align 4
  store i32 %33, ptr %32, align 8
  %34 = getelementptr inbounds %"class.gmx::TrajectorySignaller", ptr %25, i32 0, i32 5
  %35 = load i32, ptr %19, align 4
  store i32 %35, ptr %34, align 4
  %36 = getelementptr inbounds %"class.gmx::TrajectorySignaller", ptr %25, i32 0, i32 6
  %37 = load i32, ptr %20, align 4
  store i32 %37, ptr %36, align 8
  %38 = getelementptr inbounds %"class.gmx::TrajectorySignaller", ptr %25, i32 0, i32 7
  %39 = load i32, ptr %21, align 4
  store i32 %39, ptr %38, align 4
  %40 = getelementptr inbounds %"class.gmx::TrajectorySignaller", ptr %25, i32 0, i32 8
  %41 = load i32, ptr %22, align 4
  store i32 %41, ptr %40, align 8
  %42 = getelementptr inbounds %"class.gmx::TrajectorySignaller", ptr %25, i32 0, i32 9
  %43 = load i32, ptr %23, align 4
  store i32 %43, ptr %42, align 4
  %44 = getelementptr inbounds %"class.gmx::TrajectorySignaller", ptr %25, i32 0, i32 10
  %45 = load i32, ptr %24, align 4
  store i32 %45, ptr %44, align 8
  %46 = getelementptr inbounds %"class.gmx::TrajectorySignaller", ptr %25, i32 0, i32 12
  call void @_ZNSt6vectorISt8functionIFvldEESaIS2_EEC2EOS4_(ptr noundef nonnull align 8 dereferenceable(24) %46, ptr noundef nonnull align 8 dereferenceable(24) %1) #10
  %47 = getelementptr inbounds %"class.gmx::TrajectorySignaller", ptr %25, i32 0, i32 13
  call void @_ZNSt6vectorISt8functionIFvldEESaIS2_EEC2EOS4_(ptr noundef nonnull align 8 dereferenceable(24) %47, ptr noundef nonnull align 8 dereferenceable(24) %2) #10
  %48 = getelementptr inbounds %"class.gmx::TrajectorySignaller", ptr %25, i32 0, i32 14
  store i64 -1, ptr %48, align 8
  %49 = getelementptr inbounds %"class.gmx::TrajectorySignaller", ptr %25, i32 0, i32 15
  store i8 0, ptr %49, align 8
  ret void
}