; Function Attrs: mustprogress nofree norecurse nosync nounwind willreturn memory(argmem: readwrite) uwtable
define void @_ZN3gmx19TrajectorySignallerC2ESt6vectorISt8functionIFvldEESaIS4_EES6_iiiiiiiii(ptr nocapture noundef nonnull writeonly align 8 dereferenceable(120) %0, ptr nocapture noundef %1, ptr nocapture noundef %2, i32 noundef %3, i32 noundef %4, i32 noundef %5, i32 noundef %6, i32 noundef %7, i32 noundef %8, i32 noundef %9, i32 noundef %10, i32 noundef %11) unnamed_addr #6 align 2 {
  %13 = getelementptr inbounds i8, ptr %0, i64 8
  store ptr getelementptr inbounds inrange(-16, 40) ({ [7 x ptr], [5 x ptr] }, ptr @_ZTVN3gmx19TrajectorySignallerE, i64 0, i32 0, i64 2), ptr %0, align 8
  store ptr getelementptr inbounds inrange(-16, 24) ({ [7 x ptr], [5 x ptr] }, ptr @_ZTVN3gmx19TrajectorySignallerE, i64 0, i32 1, i64 2), ptr %13, align 8
  %14 = getelementptr inbounds i8, ptr %0, i64 16
  store i32 %3, ptr %14, align 8
  %15 = getelementptr inbounds i8, ptr %0, i64 20
  store i32 %4, ptr %15, align 4
  %16 = getelementptr inbounds i8, ptr %0, i64 24
  store i32 %5, ptr %16, align 8
  %17 = getelementptr inbounds i8, ptr %0, i64 28
  store i32 %6, ptr %17, align 4
  %18 = getelementptr inbounds i8, ptr %0, i64 32
  store i32 %7, ptr %18, align 8
  %19 = getelementptr inbounds i8, ptr %0, i64 36
  store i32 %8, ptr %19, align 4
  %20 = getelementptr inbounds i8, ptr %0, i64 40
  store i32 %9, ptr %20, align 8
  %21 = getelementptr inbounds i8, ptr %0, i64 44
  store i32 %10, ptr %21, align 4
  %22 = getelementptr inbounds i8, ptr %0, i64 48
  store i32 %11, ptr %22, align 8
  %23 = getelementptr inbounds i8, ptr %0, i64 56
  %24 = load ptr, ptr %1, align 8
  store ptr %24, ptr %23, align 8
  %25 = getelementptr inbounds i8, ptr %0, i64 64
  %26 = getelementptr inbounds i8, ptr %1, i64 8
  %27 = load ptr, ptr %26, align 8
  store ptr %27, ptr %25, align 8
  %28 = getelementptr inbounds i8, ptr %0, i64 72
  %29 = getelementptr inbounds i8, ptr %1, i64 16
  %30 = load ptr, ptr %29, align 8
  store ptr %30, ptr %28, align 8
  tail call void @llvm.memset.p0.i64(ptr noundef nonnull align 8 dereferenceable(24) %1, i8 0, i64 24, i1 false)
  %31 = getelementptr inbounds i8, ptr %0, i64 80
  %32 = load ptr, ptr %2, align 8
  store ptr %32, ptr %31, align 8
  %33 = getelementptr inbounds i8, ptr %0, i64 88
  %34 = getelementptr inbounds i8, ptr %2, i64 8
  %35 = load ptr, ptr %34, align 8
  store ptr %35, ptr %33, align 8
  %36 = getelementptr inbounds i8, ptr %0, i64 96
  %37 = getelementptr inbounds i8, ptr %2, i64 16
  %38 = load ptr, ptr %37, align 8
  store ptr %38, ptr %36, align 8
  tail call void @llvm.memset.p0.i64(ptr noundef nonnull align 8 dereferenceable(24) %2, i8 0, i64 24, i1 false)
  %39 = getelementptr inbounds i8, ptr %0, i64 104
  store i64 -1, ptr %39, align 8
  %40 = getelementptr inbounds i8, ptr %0, i64 112
  store i8 0, ptr %40, align 8
  ret void
}